target datalayout = "e-m:e-p270:32:32-p271:32:32-p272:64:64-i64:64-i128:128-f80:128-n8:16:32:64-S128"
target triple = "x86_64-pc-linux-gnu"

%struct.ma_vec3f = type { float, float, float }
%struct.ma_spatializer_listener_config = type { i32, ptr, i32, float, float, float, float, %struct.ma_vec3f }
%struct.ma_spatializer_listener_heap_layout = type { i64, i64 }

; Function Attrs: alwaysinline nounwind uwtable
define internal void @ma_zero_memory_default(ptr noundef %0, i64 noundef %1) #7 {
  %3 = alloca ptr, align 8
  %4 = alloca i64, align 8
  store ptr %0, ptr %3, align 8, !tbaa !25
  store i64 %1, ptr %4, align 8, !tbaa !12
  %5 = load ptr, ptr %3, align 8, !tbaa !25
  %6 = icmp eq ptr %5, null
  br i1 %6, label %7, label %8

7:                                                ; preds = %2
  br label %14

8:                                                ; preds = %2
  %9 = load i64, ptr %4, align 8, !tbaa !12
  %10 = icmp ugt i64 %9, 0
  br i1 %10, label %11, label %14

11:                                               ; preds = %8
  %12 = load ptr, ptr %3, align 8, !tbaa !25
  %13 = load i64, ptr %4, align 8, !tbaa !12
  call void @llvm.memset.p0.i64(ptr align 1 %12, i8 0, i64 %13, i1 false)
  br label %14

14:                                               ; preds = %7, %11, %8
  ret void
}

; Function Attrs: nounwind uwtable
define internal i32 @ma_spatializer_listener_get_heap_layout(ptr noundef %0, ptr noundef %1) #0 {
  %3 = alloca i32, align 4
  %4 = alloca ptr, align 8
  %5 = alloca ptr, align 8
  store ptr %0, ptr %4, align 8, !tbaa !25
  store ptr %1, ptr %5, align 8, !tbaa !25
  %6 = load ptr, ptr %5, align 8, !tbaa !25
  call void @ma_zero_memory_default(ptr noundef %6, i64 noundef 16)
  %7 = load ptr, ptr %4, align 8, !tbaa !25
  %8 = icmp eq ptr %7, null
  br i1 %8, label %9, label %10

9:                                                ; preds = %2
  store i32 -2, ptr %3, align 4
  br label %35

10:                                               ; preds = %2
  %11 = load ptr, ptr %4, align 8, !tbaa !25
  %12 = getelementptr inbounds nuw %struct.ma_spatializer_listener_config, ptr %11, i32 0, i32 0
  %13 = load i32, ptr %12, align 8, !tbaa !602
  %14 = icmp eq i32 %13, 0
  br i1 %14, label %15, label %16

15:                                               ; preds = %10
  store i32 -2, ptr %3, align 4
  br label %35

16:                                               ; preds = %10
  %17 = load ptr, ptr %5, align 8, !tbaa !25
  %18 = getelementptr inbounds nuw %struct.ma_spatializer_listener_heap_layout, ptr %17, i32 0, i32 0
  store i64 0, ptr %18, align 8, !tbaa !431
  %19 = load ptr, ptr %5, align 8, !tbaa !25
  %20 = getelementptr inbounds nuw %struct.ma_spatializer_listener_heap_layout, ptr %19, i32 0, i32 0
  %21 = load i64, ptr %20, align 8, !tbaa !431
  %22 = load ptr, ptr %5, align 8, !tbaa !25
  %23 = getelementptr inbounds nuw %struct.ma_spatializer_listener_heap_layout, ptr %22, i32 0, i32 1
  store i64 %21, ptr %23, align 8, !tbaa !433
  %24 = load ptr, ptr %4, align 8, !tbaa !25
  %25 = getelementptr inbounds nuw %struct.ma_spatializer_listener_config, ptr %24, i32 0, i32 0
  %26 = load i32, ptr %25, align 8, !tbaa !602
  %27 = zext i32 %26 to i64
  %28 = mul i64 1, %27
  %29 = add i64 %28, 7
  %30 = and i64 %29, -8
  %31 = load ptr, ptr %5, align 8, !tbaa !25
  %32 = getelementptr inbounds nuw %struct.ma_spatializer_listener_heap_layout, ptr %31, i32 0, i32 0
  %33 = load i64, ptr %32, align 8, !tbaa !431
  %34 = add i64 %33, %30
  store i64 %34, ptr %32, align 8, !tbaa !431
  store i32 0, ptr %3, align 4
  br label %35

35:                                               ; preds = %16, %15, %9
  %36 = load i32, ptr %3, align 4
  ret i32 %36
}

; Function Attrs: nounwind uwtable
define i32 @ma_spatializer_listener_get_heap_size(ptr noundef %0, ptr noundef %1) #0 {
  %3 = alloca i32, align 4
  %4 = alloca ptr, align 8
  %5 = alloca ptr, align 8
  %6 = alloca i32, align 4
  %7 = alloca %struct.ma_spatializer_listener_heap_layout, align 8
  %8 = alloca i32, align 4
  store ptr %0, ptr %4, align 8, !tbaa !25
  store ptr %1, ptr %5, align 8, !tbaa !69
  call void @llvm.lifetime.start.p0(i64 4, ptr %6) #16
  call void @llvm.lifetime.start.p0(i64 16, ptr %7) #16
  %9 = load ptr, ptr %5, align 8, !tbaa !69
  %10 = icmp eq ptr %9, null
  br i1 %10, label %11, label %12

11:                                               ; preds = %2
  store i32 -2, ptr %3, align 4
  store i32 1, ptr %8, align 4
  br label %24

12:                                               ; preds = %2
  %13 = load ptr, ptr %5, align 8, !tbaa !69
  store i64 0, ptr %13, align 8, !tbaa !12
  %14 = load ptr, ptr %4, align 8, !tbaa !25
  %15 = call i32 @ma_spatializer_listener_get_heap_layout(ptr noundef %14, ptr noundef %7)
  store i32 %15, ptr %6, align 4, !tbaa !8
  %16 = load i32, ptr %6, align 4, !tbaa !8
  %17 = icmp ne i32 %16, 0
  br i1 %17, label %18, label %20

18:                                               ; preds = %12
  %19 = load i32, ptr %6, align 4, !tbaa !8
  store i32 %19, ptr %3, align 4
  store i32 1, ptr %8, align 4
  br label %24

20:                                               ; preds = %12
  %21 = getelementptr inbounds nuw %struct.ma_spatializer_listener_heap_layout, ptr %7, i32 0, i32 0
  %22 = load i64, ptr %21, align 8, !tbaa !431
  %23 = load ptr, ptr %5, align 8, !tbaa !69
  store i64 %22, ptr %23, align 8, !tbaa !12
  store i32 0, ptr %3, align 4
  store i32 1, ptr %8, align 4
  br label %24

24:                                               ; preds = %20, %18, %11
  call void @llvm.lifetime.end.p0(i64 16, ptr %7) #16
  call void @llvm.lifetime.end.p0(i64 4, ptr %6) #16
  %25 = load i32, ptr %3, align 4
  ret i32 %25
}