; Function Attrs: mustprogress nofree norecurse nosync nounwind willreturn memory(argmem: readwrite) uwtable
define range(i32 -2, 1) i32 @ma_spatializer_listener_get_heap_size(ptr noundef readonly captures(address_is_null) %0, ptr noundef writeonly captures(address_is_null) %1) local_unnamed_addr #13 {
  %3 = icmp eq ptr %1, null
  br i1 %3, label %ma_spatializer_listener_get_heap_layout.exit.thread, label %4

4:                                                ; preds = %2
  store i64 0, ptr %1, align 8, !tbaa !52
  %5 = icmp eq ptr %0, null
  br i1 %5, label %ma_spatializer_listener_get_heap_layout.exit.thread, label %6

6:                                                ; preds = %4
  %7 = load i32, ptr %0, align 8, !tbaa !748
  %8 = icmp eq i32 %7, 0
  br i1 %8, label %ma_spatializer_listener_get_heap_layout.exit.thread, label %9

9:                                                ; preds = %6
  %10 = zext i32 %7 to i64
  %11 = add nuw nsw i64 %10, 7
  %12 = and i64 %11, 8589934584
  store i64 %12, ptr %1, align 8, !tbaa !52
  br label %ma_spatializer_listener_get_heap_layout.exit.thread

ma_spatializer_listener_get_heap_layout.exit.thread: ; preds = %6, %4, %2, %9
  %.0 = phi i32 [ 0, %9 ], [ -2, %2 ], [ -2, %4 ], [ -2, %6 ]
  ret i32 %.0
}